target datalayout = "e-m:e-p270:32:32-p271:32:32-p272:64:64-i64:64-i128:128-f80:128-n8:16:32:64-S128"
target triple = "x86_64-pc-linux-gnu"

@.str.18 = private unnamed_addr constant [7 x i8] c"unlink\00", align 1
@.str.34 = private unnamed_addr constant [18 x i8] c"unable to %s '%s'\00", align 1

; Function Attrs: nounwind uwtable
define internal i32 @warn_if_unremovable(ptr noundef %0, ptr noundef %1, i32 noundef %2) #0 {
  %4 = alloca i32, align 4
  %5 = alloca ptr, align 8
  %6 = alloca ptr, align 8
  %7 = alloca i32, align 4
  %8 = alloca i32, align 4
  %9 = alloca i32, align 4
  store ptr %0, ptr %5, align 8, !tbaa !4
  store ptr %1, ptr %6, align 8, !tbaa !4
  store i32 %2, ptr %7, align 4, !tbaa !11
  call void @llvm.lifetime.start.p0(i64 4, ptr %8) #13
  %10 = load i32, ptr %7, align 4, !tbaa !11
  %11 = icmp ne i32 %10, 0
  br i1 %11, label %12, label %16

12:                                               ; preds = %3
  %13 = call ptr @__errno_location() #19
  %14 = load i32, ptr %13, align 4, !tbaa !11
  %15 = icmp eq i32 %14, 2
  br i1 %15, label %16, label %17

16:                                               ; preds = %12, %3
  store i32 0, ptr %4, align 4
  store i32 1, ptr %9, align 4
  br label %25

17:                                               ; preds = %12
  %18 = call ptr @__errno_location() #19
  %19 = load i32, ptr %18, align 4, !tbaa !11
  store i32 %19, ptr %8, align 4, !tbaa !11
  %20 = load ptr, ptr %5, align 8, !tbaa !4
  %21 = load ptr, ptr %6, align 8, !tbaa !4
  call void (ptr, ...) @warning_errno(ptr noundef @.str.34, ptr noundef %20, ptr noundef %21)
  %22 = load i32, ptr %8, align 4, !tbaa !11
  %23 = call ptr @__errno_location() #19
  store i32 %22, ptr %23, align 4, !tbaa !11
  %24 = load i32, ptr %7, align 4, !tbaa !11
  store i32 %24, ptr %4, align 4
  store i32 1, ptr %9, align 4
  br label %25

25:                                               ; preds = %17, %16
  call void @llvm.lifetime.end.p0(i64 4, ptr %8) #13
  %26 = load i32, ptr %4, align 4
  ret i32 %26
}

; Function Attrs: nounwind uwtable
define dso_local i32 @unlink_or_warn(ptr noundef %0) #0 {
  %2 = alloca ptr, align 8
  store ptr %0, ptr %2, align 8, !tbaa !4
  %3 = load ptr, ptr %2, align 8, !tbaa !4
  %4 = load ptr, ptr %2, align 8, !tbaa !4
  %5 = call i32 @unlink(ptr noundef %4) #13
  %6 = call i32 @warn_if_unremovable(ptr noundef @.str.18, ptr noundef %3, i32 noundef %5)
  ret i32 %6
}