; Function Attrs: nounwind uwtable
define dso_local noundef i32 @unlink_or_warn(ptr noundef %0) local_unnamed_addr #0 {
  %2 = tail call i32 @unlink(ptr noundef %0) #20
  %.not.i = icmp eq i32 %2, 0
  br i1 %.not.i, label %warn_if_unremovable.exit, label %3

3:                                                ; preds = %1
  %4 = tail call ptr @__errno_location() #26
  %5 = load i32, ptr %4, align 4, !tbaa !9
  %6 = icmp eq i32 %5, 2
  br i1 %6, label %warn_if_unremovable.exit, label %7

7:                                                ; preds = %3
  tail call void (ptr, ...) @warning_errno(ptr noundef nonnull @.str.34, ptr noundef nonnull @.str.18, ptr noundef %0) #20
  store i32 %5, ptr %4, align 4, !tbaa !9
  br label %warn_if_unremovable.exit

warn_if_unremovable.exit:                         ; preds = %1, %3, %7
  %.0.i = phi i32 [ %2, %7 ], [ 0, %3 ], [ 0, %1 ]
  ret i32 %.0.i
}